SF:/workspace/rust-basic-api/src/config.rs
FN:43,_RNCNvMNtCsjSzkdKu7oqe_14rust_basic_api6configNtB4_6Config8from_env0B6_
FN:55,_RNCNvMNtCsjSzkdKu7oqe_14rust_basic_api6configNtB4_6Config8from_envs_0B6_
FN:90,_RNvNtNtCsjSzkdKu7oqe_14rust_basic_api6config5tests8env_lock
FN:132,_RNvNtNtCsjSzkdKu7oqe_14rust_basic_api6config5testss_33rejects_zero_database_connections
FN:95,_RNvNtNtCsjSzkdKu7oqe_14rust_basic_api6config5testss_35loads_required_configuration_values
FN:120,_RNvNtNtCsjSzkdKu7oqe_14rust_basic_api6config5testss_57defaults_optional_values_and_errors_when_required_missing
FN:19,_RNvMNtCsjSzkdKu7oqe_14rust_basic_api6configNtB2_6Config8from_env
FNDA:0,_RNCNvMNtCsjSzkdKu7oqe_14rust_basic_api6configNtB4_6Config8from_env0B6_
FNDA:0,_RNCNvMNtCsjSzkdKu7oqe_14rust_basic_api6configNtB4_6Config8from_envs_0B6_
FNDA:3,_RNvNtNtCsjSzkdKu7oqe_14rust_basic_api6config5tests8env_lock
FNDA:1,_RNvNtNtCsjSzkdKu7oqe_14rust_basic_api6config5testss_33rejects_zero_database_connections
FNDA:1,_RNvNtNtCsjSzkdKu7oqe_14rust_basic_api6config5testss_35loads_required_configuration_values
FNDA:1,_RNvNtNtCsjSzkdKu7oqe_14rust_basic_api6config5testss_57defaults_optional_values_and_errors_when_required_missing
FNDA:3,_RNvMNtCsjSzkdKu7oqe_14rust_basic_api6configNtB2_6Config8from_env
FNF:7
FNH:5
DA:19,3
DA:20,3
DA:21,0
DA:22,0
DA:24,3
DA:25,0
DA:28,3
DA:29,2
DA:30,2
DA:31,1
DA:32,0
DA:33,0
DA:34,0
DA:35,0
DA:36,0
DA:40,2
DA:41,1
DA:42,1
DA:43,1
DA:44,1
DA:45,0
DA:46,0
DA:47,0
DA:48,0
DA:49,0
DA:53,2
DA:54,2
DA:55,2
DA:56,0
DA:57,0
DA:58,0
DA:59,0
DA:60,0
DA:61,2
DA:62,1
DA:63,1
DA:64,1
DA:66,0
DA:67,0
DA:68,0
DA:69,0
DA:70,0
DA:71,0
DA:75,1
DA:76,1
DA:77,1
DA:78,1
DA:79,1
DA:80,3
DA:90,3
DA:91,3
DA:92,3
DA:95,1
DA:96,1
DA:98,1
DA:102,1
DA:103,1
DA:105,1
DA:107,1
DA:111,1
DA:112,1
DA:114,1
DA:115,1
DA:116,1
DA:117,1
DA:120,1
DA:121,1
DA:123,1
DA:124,1
DA:125,1
DA:127,1
DA:128,1
DA:129,1
DA:132,1
DA:133,1
DA:135,1
DA:139,1
DA:141,1
DA:142,1
DA:143,1
DA:147,1
DA:148,1
DA:149,1
BRF:0
BRH:0
LF:86
LH:59
end_of_record
SF:/workspace/rust-basic-api/src/main.rs
FN:51,_RNCNCNvCsjSzkdKu7oqe_14rust_basic_api15shutdown_signal00B5_
FN:58,_RNCNCNvCsjSzkdKu7oqe_14rust_basic_api15shutdown_signal0s_0B5_
FN:50,_RNCNvCsjSzkdKu7oqe_14rust_basic_api15shutdown_signal0B3_
FN:15,_RNCNvCsjSzkdKu7oqe_14rust_basic_api4main0B3_
FN:50,_RNvCsjSzkdKu7oqe_14rust_basic_api15shutdown_signal
FN:15,_RNvCsjSzkdKu7oqe_14rust_basic_api4main
FN:39,_RNCNvCsjSzkdKu7oqe_14rust_basic_api12init_tracing0B3_
FN:38,_RNvCsjSzkdKu7oqe_14rust_basic_api12init_tracing
FN:82,_RNvNtCsjSzkdKu7oqe_14rust_basic_api5testss_26init_tracing_is_idempotent
FNDA:0,_RNCNCNvCsjSzkdKu7oqe_14rust_basic_api15shutdown_signal00B5_
FNDA:0,_RNCNCNvCsjSzkdKu7oqe_14rust_basic_api15shutdown_signal0s_0B5_
FNDA:0,_RNCNvCsjSzkdKu7oqe_14rust_basic_api15shutdown_signal0B3_
FNDA:0,_RNCNvCsjSzkdKu7oqe_14rust_basic_api4main0B3_
FNDA:0,_RNvCsjSzkdKu7oqe_14rust_basic_api15shutdown_signal
FNDA:0,_RNvCsjSzkdKu7oqe_14rust_basic_api4main
FNDA:2,_RNCNvCsjSzkdKu7oqe_14rust_basic_api12init_tracing0B3_
FNDA:2,_RNvCsjSzkdKu7oqe_14rust_basic_api12init_tracing
FNDA:1,_RNvNtCsjSzkdKu7oqe_14rust_basic_api5testss_26init_tracing_is_idempotent
FNF:9
FNH:3
DA:15,0
DA:16,0
DA:18,0
DA:20,0
DA:21,0
DA:23,0
DA:24,0
DA:26,0
DA:27,0
DA:29,0
DA:30,0
DA:31,0
DA:32,0
DA:33,0
DA:35,0
DA:36,0
DA:38,2
DA:39,2
DA:41,2
DA:42,2
DA:43,2
DA:45,2
DA:46,1
DA:47,1
DA:48,2
DA:50,0
DA:51,0
DA:52,0
DA:53,0
DA:54,0
DA:55,0
DA:58,0
DA:61,0
DA:62,0
DA:63,0
DA:64,0
DA:69,0
DA:70,0
DA:71,0
DA:74,0
DA:75,0
DA:82,1
DA:83,1
DA:84,1
DA:85,1
BRF:0
BRH:0
LF:51
LH:14
end_of_record
SF:/workspace/rust-basic-api/src/repository/mod.rs
FN:10,_RNvNtCsjSzkdKu7oqe_14rust_basic_api10repository11create_pool
FN:23,_RNCNvNtNtCsjSzkdKu7oqe_14rust_basic_api10repository5testss_35creates_lazy_pool_from_database_url0B7_
FN:23,_RNvNtNtCsjSzkdKu7oqe_14rust_basic_api10repository5testss_35creates_lazy_pool_from_database_url
FNDA:3,_RNvNtCsjSzkdKu7oqe_14rust_basic_api10repository11create_pool
FNDA:1,_RNCNvNtNtCsjSzkdKu7oqe_14rust_basic_api10repository5testss_35creates_lazy_pool_from_database_url0B7_
FNDA:1,_RNvNtNtCsjSzkdKu7oqe_14rust_basic_api10repository5testss_35creates_lazy_pool_from_database_url
FNF:3
FNH:3
DA:10,3
DA:11,3
DA:13,3
DA:14,3
DA:15,3
DA:16,3
DA:23,1
DA:24,1
DA:25,1
DA:26,1
DA:27,1
BRF:0
BRH:0
LF:13
LH:13
end_of_record
SF:/workspace/rust-basic-api/src/routes/mod.rs
FN:13,_RNvNtCsjSzkdKu7oqe_14rust_basic_api6routes12health_check
FN:7,_RNvNtCsjSzkdKu7oqe_14rust_basic_api6routes6router
FN:32,_RNvNtNtCsjSzkdKu7oqe_14rust_basic_api6routes5testss_23health_check_returns_ok
FN:57,_RNvNtNtCsjSzkdKu7oqe_14rust_basic_api6routes5testss_32health_check_detects_closed_pool
FN:13,_RNCNvNtCsjSzkdKu7oqe_14rust_basic_api6routes12health_check0B5_
FN:32,_RNCNvNtNtCsjSzkdKu7oqe_14rust_basic_api6routes5testss_23health_check_returns_ok0B7_
FN:57,_RNCNvNtNtCsjSzkdKu7oqe_14rust_basic_api6routes5testss_32health_check_detects_closed_pool0B7_
FNDA:2,_RNvNtCsjSzkdKu7oqe_14rust_basic_api6routes12health_check
FNDA:2,_RNvNtCsjSzkdKu7oqe_14rust_basic_api6routes6router
FNDA:1,_RNvNtNtCsjSzkdKu7oqe_14rust_basic_api6routes5testss_23health_check_returns_ok
FNDA:1,_RNvNtNtCsjSzkdKu7oqe_14rust_basic_api6routes5testss_32health_check_detects_closed_pool
FNDA:2,_RNCNvNtCsjSzkdKu7oqe_14rust_basic_api6routes12health_check0B5_
FNDA:1,_RNCNvNtNtCsjSzkdKu7oqe_14rust_basic_api6routes5testss_23health_check_returns_ok0B7_
FNDA:1,_RNCNvNtNtCsjSzkdKu7oqe_14rust_basic_api6routes5testss_32health_check_detects_closed_pool0B7_
FNF:7
FNH:7
DA:7,2
DA:8,2
DA:9,2
DA:10,2
DA:11,2
DA:13,2
DA:14,2
DA:15,1
DA:17,1
DA:19,2
DA:32,1
DA:33,1
DA:34,1
DA:35,1
DA:36,1
DA:38,1
DA:40,1
DA:41,1
DA:42,1
DA:43,1
DA:44,1
DA:45,1
DA:46,1
DA:47,1
DA:48,1
DA:50,1
DA:52,1
DA:53,1
DA:54,1
DA:57,1
DA:58,1
DA:59,1
DA:60,1
DA:62,1
DA:63,1
DA:65,1
DA:66,1
DA:67,1
DA:68,1
DA:69,1
DA:70,1
DA:71,1
DA:72,1
DA:73,1
DA:75,1
DA:76,1
BRF:0
BRH:0
LF:51
LH:51
end_of_record