SF:/workspace/rust-basic-api/src/config.rs
FN:43,_RNCNvMNtCsjSzkdKu7oqe_14rust_basic_api6configNtB4_6Config8from_env0B6_
FN:55,_RNCNvMNtCsjSzkdKu7oqe_14rust_basic_api6configNtB4_6Config8from_envs_0B6_
FN:90,_RNvNtNtCsjSzkdKu7oqe_14rust_basic_api6config5tests8env_lock
FN:250,_RNvNtNtCsjSzkdKu7oqe_14rust_basic_api6config5testss_12config_clone
FN:236,_RNvNtNtCsjSzkdKu7oqe_14rust_basic_api6config5testss_23config_debug_formatting
FN:152,_RNvNtNtCsjSzkdKu7oqe_14rust_basic_api6config5testss_26rejects_empty_database_url
FN:192,_RNvNtNtCsjSzkdKu7oqe_14rust_basic_api6config5testss_27handles_env_var_read_errors
FN:164,_RNvNtNtCsjSzkdKu7oqe_14rust_basic_api6config5testss_27rejects_invalid_server_port
FN:132,_RNvNtNtCsjSzkdKu7oqe_14rust_basic_api6config5testss_33rejects_zero_database_connections
FN:208,_RNvNtNtCsjSzkdKu7oqe_14rust_basic_api6config5testss_34handles_whitespace_in_database_url
FN:95,_RNvNtNtCsjSzkdKu7oqe_14rust_basic_api6config5testss_35loads_required_configuration_values
FN:178,_RNvNtNtCsjSzkdKu7oqe_14rust_basic_api6config5testss_40rejects_invalid_database_max_connections
FN:220,_RNvNtNtCsjSzkdKu7oqe_14rust_basic_api6config5testss_41loads_defaults_when_optional_vars_missing
FN:120,_RNvNtNtCsjSzkdKu7oqe_14rust_basic_api6config5testss_57defaults_optional_values_and_errors_when_required_missing
FN:19,_RNvMNtCsjSzkdKu7oqe_14rust_basic_api6configNtB2_6Config8from_env
FNDA:2,_RNCNvMNtCsjSzkdKu7oqe_14rust_basic_api6configNtB4_6Config8from_env0B6_
FNDA:1,_RNCNvMNtCsjSzkdKu7oqe_14rust_basic_api6configNtB4_6Config8from_envs_0B6_
FNDA:9,_RNvNtNtCsjSzkdKu7oqe_14rust_basic_api6config5tests8env_lock
FNDA:1,_RNvNtNtCsjSzkdKu7oqe_14rust_basic_api6config5testss_12config_clone
FNDA:1,_RNvNtNtCsjSzkdKu7oqe_14rust_basic_api6config5testss_23config_debug_formatting
FNDA:1,_RNvNtNtCsjSzkdKu7oqe_14rust_basic_api6config5testss_26rejects_empty_database_url
FNDA:1,_RNvNtNtCsjSzkdKu7oqe_14rust_basic_api6config5testss_27handles_env_var_read_errors
FNDA:1,_RNvNtNtCsjSzkdKu7oqe_14rust_basic_api6config5testss_27rejects_invalid_server_port
FNDA:1,_RNvNtNtCsjSzkdKu7oqe_14rust_basic_api6config5testss_33rejects_zero_database_connections
FNDA:1,_RNvNtNtCsjSzkdKu7oqe_14rust_basic_api6config5testss_34handles_whitespace_in_database_url
FNDA:1,_RNvNtNtCsjSzkdKu7oqe_14rust_basic_api6config5testss_35loads_required_configuration_values
FNDA:1,_RNvNtNtCsjSzkdKu7oqe_14rust_basic_api6config5testss_40rejects_invalid_database_max_connections
FNDA:1,_RNvNtNtCsjSzkdKu7oqe_14rust_basic_api6config5testss_41loads_defaults_when_optional_vars_missing
FNDA:1,_RNvNtNtCsjSzkdKu7oqe_14rust_basic_api6config5testss_57defaults_optional_values_and_errors_when_required_missing
FNDA:9,_RNvMNtCsjSzkdKu7oqe_14rust_basic_api6configNtB2_6Config8from_env
FNF:15
FNH:15
DA:19,9
DA:20,9
DA:21,0
DA:22,0
DA:24,9
DA:25,0
DA:28,9
DA:29,8
DA:30,6
DA:31,1
DA:32,0
DA:33,0
DA:34,0
DA:35,0
DA:36,0
DA:40,6
DA:41,3
DA:42,3
DA:43,3
DA:44,3
DA:45,0
DA:46,0
DA:47,0
DA:48,0
DA:49,0
DA:53,4
DA:54,3
DA:55,3
DA:56,1
DA:57,1
DA:58,1
DA:59,1
DA:60,1
DA:61,2
DA:62,1
DA:63,1
DA:64,1
DA:66,1
DA:67,0
DA:68,0
DA:69,0
DA:70,0
DA:71,0
DA:75,2
DA:76,2
DA:77,2
DA:78,2
DA:79,2
DA:80,9
DA:90,9
DA:91,9
DA:92,9
DA:95,1
DA:96,1
DA:98,1
DA:102,1
DA:103,1
DA:105,1
DA:107,1
DA:111,1
DA:112,1
DA:114,1
DA:115,1
DA:116,1
DA:117,1
DA:120,1
DA:121,1
DA:123,1
DA:124,1
DA:125,1
DA:127,1
DA:128,1
DA:129,1
DA:132,1
DA:133,1
DA:135,1
DA:139,1
DA:141,1
DA:142,1
DA:143,1
DA:147,1
DA:148,1
DA:149,1
DA:152,1
DA:153,1
DA:155,1
DA:157,1
DA:158,1
DA:160,1
DA:161,1
DA:164,1
DA:165,1
DA:167,1
DA:168,1
DA:170,1
DA:171,1
DA:173,1
DA:174,1
DA:175,1
DA:178,1
DA:179,1
DA:181,1
DA:182,1
DA:184,1
DA:185,1
DA:187,1
DA:188,1
DA:189,1
DA:192,1
DA:193,1
DA:195,1
DA:198,1
DA:200,1
DA:201,1
DA:203,1
DA:204,1
DA:205,1
DA:208,1
DA:209,1
DA:211,1
DA:213,1
DA:214,1
DA:216,1
DA:217,1
DA:220,1
DA:221,1
DA:223,1
DA:224,1
DA:225,1
DA:227,1
DA:229,1
DA:230,1
DA:232,1
DA:233,1
DA:236,1
DA:237,1
DA:238,1
DA:239,1
DA:240,1
DA:241,1
DA:243,1
DA:244,1
DA:245,1
DA:246,1
DA:247,1
DA:250,1
DA:251,1
DA:252,1
DA:253,1
DA:254,1
DA:255,1
DA:257,1
DA:258,1
DA:259,1
DA:260,1
DA:261,1
BRF:0
BRH:0
LF:159
LH:141
end_of_record
SF:/workspace/rust-basic-api/src/error.rs
FN:84,_RNvNtNtCsjSzkdKu7oqe_14rust_basic_api5error5testss_20config_error_sources
FN:44,_RNvNtNtCsjSzkdKu7oqe_14rust_basic_api5error5testss_29config_error_display_messages
FNDA:1,_RNvNtNtCsjSzkdKu7oqe_14rust_basic_api5error5testss_20config_error_sources
FNDA:1,_RNvNtNtCsjSzkdKu7oqe_14rust_basic_api5error5testss_29config_error_display_messages
FNF:2
FNH:2
DA:44,1
DA:45,1
DA:46,1
DA:50,1
DA:51,1
DA:55,1
DA:56,1
DA:57,1
DA:58,1
DA:59,1
DA:60,1
DA:64,1
DA:65,1
DA:66,1
DA:67,1
DA:68,1
DA:70,1
DA:71,1
DA:72,1
DA:73,1
DA:74,1
DA:76,1
DA:77,1
DA:78,1
DA:81,1
DA:84,1
DA:85,1
DA:86,1
DA:87,1
DA:88,1
DA:89,1
DA:91,1
DA:92,1
DA:93,1
DA:94,1
DA:95,1
DA:97,1
DA:98,1
DA:99,1
DA:100,1
DA:101,1
DA:104,1
DA:105,1
DA:106,1
DA:107,1
BRF:0
BRH:0
LF:45
LH:45
end_of_record
SF:/workspace/rust-basic-api/src/main.rs
FN:15,_RNCNvCsjSzkdKu7oqe_14rust_basic_api4main0B3_
FN:15,_RNvCsjSzkdKu7oqe_14rust_basic_api4main
FN:51,_RNCNCNvCsjSzkdKu7oqe_14rust_basic_api15shutdown_signal00B5_
FN:58,_RNCNCNvCsjSzkdKu7oqe_14rust_basic_api15shutdown_signal0s_0B5_
FN:39,_RNCNvCsjSzkdKu7oqe_14rust_basic_api12init_tracing0B3_
FN:50,_RNCNvCsjSzkdKu7oqe_14rust_basic_api15shutdown_signal0B3_
FN:38,_RNvCsjSzkdKu7oqe_14rust_basic_api12init_tracing
FN:50,_RNvCsjSzkdKu7oqe_14rust_basic_api15shutdown_signal
FN:87,_RNCNvNtCsjSzkdKu7oqe_14rust_basic_api5tests17init_test_tracing0B5_
FN:134,_RNCNvNtCsjSzkdKu7oqe_14rust_basic_api5testss_18app_state_creation0B5_
FN:149,_RNCNvNtCsjSzkdKu7oqe_14rust_basic_api5testss_26repository_pool_management0B5_
FN:168,_RNCNvNtCsjSzkdKu7oqe_14rust_basic_api5testss_31repository_zero_max_connections0B5_
FN:120,_RNCNvNtCsjSzkdKu7oqe_14rust_basic_api5testss_31shutdown_signal_receives_ctrl_c0B5_
FN:86,_RNvNtCsjSzkdKu7oqe_14rust_basic_api5tests17init_test_tracing
FN:134,_RNvNtCsjSzkdKu7oqe_14rust_basic_api5testss_18app_state_creation
FN:93,_RNvNtCsjSzkdKu7oqe_14rust_basic_api5testss_26init_tracing_is_idempotent
FN:149,_RNvNtCsjSzkdKu7oqe_14rust_basic_api5testss_26repository_pool_management
FN:106,_RNvNtCsjSzkdKu7oqe_14rust_basic_api5testss_28init_tracing_with_env_filter
FN:162,_RNvNtCsjSzkdKu7oqe_14rust_basic_api5testss_31repository_invalid_database_url
FN:168,_RNvNtCsjSzkdKu7oqe_14rust_basic_api5testss_31repository_zero_max_connections
FN:120,_RNvNtCsjSzkdKu7oqe_14rust_basic_api5testss_31shutdown_signal_receives_ctrl_c
FN:113,_RNvNtCsjSzkdKu7oqe_14rust_basic_api5testss_36init_tracing_with_invalid_env_filter
FN:99,_RNvNtCsjSzkdKu7oqe_14rust_basic_api5testss_40init_tracing_handles_already_initialized
FNDA:0,_RNCNvCsjSzkdKu7oqe_14rust_basic_api4main0B3_
FNDA:0,_RNvCsjSzkdKu7oqe_14rust_basic_api4main
FNDA:1,_RNCNCNvCsjSzkdKu7oqe_14rust_basic_api15shutdown_signal00B5_
FNDA:1,_RNCNCNvCsjSzkdKu7oqe_14rust_basic_api15shutdown_signal0s_0B5_
FNDA:3,_RNCNvCsjSzkdKu7oqe_14rust_basic_api12init_tracing0B3_
FNDA:1,_RNCNvCsjSzkdKu7oqe_14rust_basic_api15shutdown_signal0B3_
FNDA:6,_RNvCsjSzkdKu7oqe_14rust_basic_api12init_tracing
FNDA:1,_RNvCsjSzkdKu7oqe_14rust_basic_api15shutdown_signal
FNDA:1,_RNCNvNtCsjSzkdKu7oqe_14rust_basic_api5tests17init_test_tracing0B5_
FNDA:1,_RNCNvNtCsjSzkdKu7oqe_14rust_basic_api5testss_18app_state_creation0B5_
FNDA:1,_RNCNvNtCsjSzkdKu7oqe_14rust_basic_api5testss_26repository_pool_management0B5_
FNDA:1,_RNCNvNtCsjSzkdKu7oqe_14rust_basic_api5testss_31repository_zero_max_connections0B5_
FNDA:1,_RNCNvNtCsjSzkdKu7oqe_14rust_basic_api5testss_31shutdown_signal_receives_ctrl_c0B5_
FNDA:1,_RNvNtCsjSzkdKu7oqe_14rust_basic_api5tests17init_test_tracing
FNDA:1,_RNvNtCsjSzkdKu7oqe_14rust_basic_api5testss_18app_state_creation
FNDA:1,_RNvNtCsjSzkdKu7oqe_14rust_basic_api5testss_26init_tracing_is_idempotent
FNDA:1,_RNvNtCsjSzkdKu7oqe_14rust_basic_api5testss_26repository_pool_management
FNDA:1,_RNvNtCsjSzkdKu7oqe_14rust_basic_api5testss_28init_tracing_with_env_filter
FNDA:1,_RNvNtCsjSzkdKu7oqe_14rust_basic_api5testss_31repository_invalid_database_url
FNDA:1,_RNvNtCsjSzkdKu7oqe_14rust_basic_api5testss_31repository_zero_max_connections
FNDA:1,_RNvNtCsjSzkdKu7oqe_14rust_basic_api5testss_31shutdown_signal_receives_ctrl_c
FNDA:1,_RNvNtCsjSzkdKu7oqe_14rust_basic_api5testss_36init_tracing_with_invalid_env_filter
FNDA:1,_RNvNtCsjSzkdKu7oqe_14rust_basic_api5testss_40init_tracing_handles_already_initialized
FNF:23
FNH:21
DA:15,0
DA:16,0
DA:18,0
DA:20,0
DA:21,0
DA:23,0
DA:24,0
DA:26,0
DA:27,0
DA:29,0
DA:30,0
DA:31,0
DA:32,0
DA:33,0
DA:35,0
DA:36,0
DA:38,6
DA:39,6
DA:41,6
DA:42,6
DA:43,6
DA:45,6
DA:46,5
DA:47,1
DA:48,6
DA:50,1
DA:51,1
DA:52,1
DA:53,1
DA:54,0
DA:55,0
DA:58,1
DA:61,1
DA:62,1
DA:63,1
DA:64,0
DA:69,1
DA:70,1
DA:71,1
DA:74,0
DA:75,0
DA:86,1
DA:87,1
DA:88,1
DA:89,1
DA:90,1
DA:93,1
DA:94,1
DA:95,1
DA:96,1
DA:99,1
DA:100,1
DA:102,1
DA:103,1
DA:106,1
DA:107,1
DA:108,1
DA:109,1
DA:110,1
DA:113,1
DA:114,1
DA:115,1
DA:116,1
DA:117,1
DA:120,1
DA:123,1
DA:124,1
DA:125,0
DA:126,0
DA:127,1
DA:128,1
DA:129,1
DA:130,1
DA:131,1
DA:134,1
DA:135,1
DA:136,1
DA:138,1
DA:141,1
DA:144,1
DA:145,1
DA:146,1
DA:149,1
DA:150,1
DA:151,1
DA:153,1
DA:154,1
DA:157,1
DA:158,1
DA:159,1
DA:162,1
DA:163,1
DA:164,1
DA:165,1
DA:168,1
DA:170,1
DA:171,1
DA:172,1
DA:173,1
BRF:0
BRH:0
LF:120
LH:95
end_of_record
SF:/workspace/rust-basic-api/src/models/mod.rs
FN:16,_RNCNvNtNtCsjSzkdKu7oqe_14rust_basic_api6models5testss_15app_state_clone0B7_
FN:29,_RNCNvNtNtCsjSzkdKu7oqe_14rust_basic_api6models5testss_22app_state_debug_format0B7_
FN:16,_RNvNtNtCsjSzkdKu7oqe_14rust_basic_api6models5testss_15app_state_clone
FN:29,_RNvNtNtCsjSzkdKu7oqe_14rust_basic_api6models5testss_22app_state_debug_format
FNDA:1,_RNCNvNtNtCsjSzkdKu7oqe_14rust_basic_api6models5testss_15app_state_clone0B7_
FNDA:1,_RNCNvNtNtCsjSzkdKu7oqe_14rust_basic_api6models5testss_22app_state_debug_format0B7_
FNDA:1,_RNvNtNtCsjSzkdKu7oqe_14rust_basic_api6models5testss_15app_state_clone
FNDA:1,_RNvNtNtCsjSzkdKu7oqe_14rust_basic_api6models5testss_22app_state_debug_format
FNF:4
FNH:4
DA:16,1
DA:17,1
DA:18,1
DA:20,1
DA:21,1
DA:24,1
DA:25,1
DA:26,1
DA:29,1
DA:30,1
DA:31,1
DA:33,1
DA:34,1
DA:36,1
DA:37,1
DA:38,1
BRF:0
BRH:0
LF:20
LH:20
end_of_record
SF:/workspace/rust-basic-api/src/repository/mod.rs
FN:10,_RNvNtCsjSzkdKu7oqe_14rust_basic_api10repository11create_pool
FN:81,_RNCNvNtNtCsjSzkdKu7oqe_14rust_basic_api10repository5testss_18db_pool_type_alias0B7_
FN:70,_RNCNvNtNtCsjSzkdKu7oqe_14rust_basic_api10repository5testss_18pool_can_be_closed0B7_
FN:26,_RNCNvNtNtCsjSzkdKu7oqe_14rust_basic_api10repository5testss_35creates_lazy_pool_from_database_url0B7_
FN:55,_RNCNvNtNtCsjSzkdKu7oqe_14rust_basic_api10repository5testss_37create_pool_with_zero_max_connections0B7_
FN:33,_RNCNvNtNtCsjSzkdKu7oqe_14rust_basic_api10repository5testss_40create_pool_with_various_max_connections0B7_
FN:63,_RNCNvNtNtCsjSzkdKu7oqe_14rust_basic_api10repository5testss_42create_pool_with_special_characters_in_url0B7_
FN:81,_RNvNtNtCsjSzkdKu7oqe_14rust_basic_api10repository5testss_18db_pool_type_alias
FN:70,_RNvNtNtCsjSzkdKu7oqe_14rust_basic_api10repository5testss_18pool_can_be_closed
FN:49,_RNvNtNtCsjSzkdKu7oqe_14rust_basic_api10repository5testss_26create_pool_with_empty_url
FN:43,_RNvNtNtCsjSzkdKu7oqe_14rust_basic_api10repository5testss_35create_pool_with_invalid_url_format
FN:26,_RNvNtNtCsjSzkdKu7oqe_14rust_basic_api10repository5testss_35creates_lazy_pool_from_database_url
FN:55,_RNvNtNtCsjSzkdKu7oqe_14rust_basic_api10repository5testss_37create_pool_with_zero_max_connections
FN:33,_RNvNtNtCsjSzkdKu7oqe_14rust_basic_api10repository5testss_40create_pool_with_various_max_connections
FN:63,_RNvNtNtCsjSzkdKu7oqe_14rust_basic_api10repository5testss_42create_pool_with_special_characters_in_url
FNDA:22,_RNvNtCsjSzkdKu7oqe_14rust_basic_api10repository11create_pool
FNDA:1,_RNCNvNtNtCsjSzkdKu7oqe_14rust_basic_api10repository5testss_18db_pool_type_alias0B7_
FNDA:1,_RNCNvNtNtCsjSzkdKu7oqe_14rust_basic_api10repository5testss_18pool_can_be_closed0B7_
FNDA:1,_RNCNvNtNtCsjSzkdKu7oqe_14rust_basic_api10repository5testss_35creates_lazy_pool_from_database_url0B7_
FNDA:1,_RNCNvNtNtCsjSzkdKu7oqe_14rust_basic_api10repository5testss_37create_pool_with_zero_max_connections0B7_
FNDA:1,_RNCNvNtNtCsjSzkdKu7oqe_14rust_basic_api10repository5testss_40create_pool_with_various_max_connections0B7_
FNDA:1,_RNCNvNtNtCsjSzkdKu7oqe_14rust_basic_api10repository5testss_42create_pool_with_special_characters_in_url0B7_
FNDA:1,_RNvNtNtCsjSzkdKu7oqe_14rust_basic_api10repository5testss_18db_pool_type_alias
FNDA:1,_RNvNtNtCsjSzkdKu7oqe_14rust_basic_api10repository5testss_18pool_can_be_closed
FNDA:1,_RNvNtNtCsjSzkdKu7oqe_14rust_basic_api10repository5testss_26create_pool_with_empty_url
FNDA:1,_RNvNtNtCsjSzkdKu7oqe_14rust_basic_api10repository5testss_35create_pool_with_invalid_url_format
FNDA:1,_RNvNtNtCsjSzkdKu7oqe_14rust_basic_api10repository5testss_35creates_lazy_pool_from_database_url
FNDA:1,_RNvNtNtCsjSzkdKu7oqe_14rust_basic_api10repository5testss_37create_pool_with_zero_max_connections
FNDA:1,_RNvNtNtCsjSzkdKu7oqe_14rust_basic_api10repository5testss_40create_pool_with_various_max_connections
FNDA:1,_RNvNtNtCsjSzkdKu7oqe_14rust_basic_api10repository5testss_42create_pool_with_special_characters_in_url
FNF:15
FNH:15
DA:10,22
DA:11,22
DA:14,19
DA:16,19
DA:17,19
DA:18,19
DA:19,22
DA:26,1
DA:27,1
DA:28,1
DA:29,1
DA:30,1
DA:33,1
DA:35,4
DA:36,3
DA:37,3
DA:38,3
DA:39,1
DA:40,1
DA:43,1
DA:44,1
DA:45,1
DA:46,1
DA:49,1
DA:50,1
DA:51,1
DA:52,1
DA:55,1
DA:57,1
DA:58,1
DA:59,1
DA:60,1
DA:63,1
DA:64,1
DA:65,1
DA:66,1
DA:67,1
DA:70,1
DA:71,1
DA:72,1
DA:74,1
DA:76,1
DA:77,1
DA:78,1
DA:81,1
DA:82,1
DA:83,1
DA:84,1
DA:85,1
BRF:0
BRH:0
LF:64
LH:64
end_of_record
SF:/workspace/rust-basic-api/src/routes/mod.rs
FN:13,_RNvNtCsjSzkdKu7oqe_14rust_basic_api6routes12health_check
FN:7,_RNvNtCsjSzkdKu7oqe_14rust_basic_api6routes6router
FN:150,_RNvNtNtCsjSzkdKu7oqe_14rust_basic_api6routes5testss_20router_accepts_state
FN:32,_RNvNtNtCsjSzkdKu7oqe_14rust_basic_api6routes5testss_23health_check_returns_ok
FN:128,_RNvNtNtCsjSzkdKu7oqe_14rust_basic_api6routes5testss_28router_handles_unknown_route
FN:82,_RNvNtNtCsjSzkdKu7oqe_14rust_basic_api6routes5testss_31health_check_handles_get_method
FN:57,_RNvNtNtCsjSzkdKu7oqe_14rust_basic_api6routes5testss_32health_check_detects_closed_pool
FN:105,_RNvNtNtCsjSzkdKu7oqe_14rust_basic_api6routes5testss_32health_check_rejects_post_method
FN:13,_RNCNvNtCsjSzkdKu7oqe_14rust_basic_api6routes12health_check0B5_
FN:150,_RNCNvNtNtCsjSzkdKu7oqe_14rust_basic_api6routes5testss_20router_accepts_state0B7_
FN:32,_RNCNvNtNtCsjSzkdKu7oqe_14rust_basic_api6routes5testss_23health_check_returns_ok0B7_
FN:128,_RNCNvNtNtCsjSzkdKu7oqe_14rust_basic_api6routes5testss_28router_handles_unknown_route0B7_
FN:82,_RNCNvNtNtCsjSzkdKu7oqe_14rust_basic_api6routes5testss_31health_check_handles_get_method0B7_
FN:57,_RNCNvNtNtCsjSzkdKu7oqe_14rust_basic_api6routes5testss_32health_check_detects_closed_pool0B7_
FN:105,_RNCNvNtNtCsjSzkdKu7oqe_14rust_basic_api6routes5testss_32health_check_rejects_post_method0B7_
FNDA:3,_RNvNtCsjSzkdKu7oqe_14rust_basic_api6routes12health_check
FNDA:6,_RNvNtCsjSzkdKu7oqe_14rust_basic_api6routes6router
FNDA:1,_RNvNtNtCsjSzkdKu7oqe_14rust_basic_api6routes5testss_20router_accepts_state
FNDA:1,_RNvNtNtCsjSzkdKu7oqe_14rust_basic_api6routes5testss_23health_check_returns_ok
FNDA:1,_RNvNtNtCsjSzkdKu7oqe_14rust_basic_api6routes5testss_28router_handles_unknown_route
FNDA:1,_RNvNtNtCsjSzkdKu7oqe_14rust_basic_api6routes5testss_31health_check_handles_get_method
FNDA:1,_RNvNtNtCsjSzkdKu7oqe_14rust_basic_api6routes5testss_32health_check_detects_closed_pool
FNDA:1,_RNvNtNtCsjSzkdKu7oqe_14rust_basic_api6routes5testss_32health_check_rejects_post_method
FNDA:3,_RNCNvNtCsjSzkdKu7oqe_14rust_basic_api6routes12health_check0B5_
FNDA:1,_RNCNvNtNtCsjSzkdKu7oqe_14rust_basic_api6routes5testss_20router_accepts_state0B7_
FNDA:1,_RNCNvNtNtCsjSzkdKu7oqe_14rust_basic_api6routes5testss_23health_check_returns_ok0B7_
FNDA:1,_RNCNvNtNtCsjSzkdKu7oqe_14rust_basic_api6routes5testss_28router_handles_unknown_route0B7_
FNDA:1,_RNCNvNtNtCsjSzkdKu7oqe_14rust_basic_api6routes5testss_31health_check_handles_get_method0B7_
FNDA:1,_RNCNvNtNtCsjSzkdKu7oqe_14rust_basic_api6routes5testss_32health_check_detects_closed_pool0B7_
FNDA:1,_RNCNvNtNtCsjSzkdKu7oqe_14rust_basic_api6routes5testss_32health_check_rejects_post_method0B7_
FNF:15
FNH:15
DA:7,6
DA:8,6
DA:9,6
DA:10,6
DA:11,6
DA:13,3
DA:14,3
DA:15,1
DA:17,2
DA:19,3
DA:32,1
DA:33,1
DA:34,1
DA:35,1
DA:36,1
DA:38,1
DA:40,1
DA:41,1
DA:42,1
DA:43,1
DA:44,1
DA:45,1
DA:46,1
DA:47,1
DA:48,1
DA:50,1
DA:52,1
DA:53,1
DA:54,1
DA:57,1
DA:58,1
DA:59,1
DA:60,1
DA:62,1
DA:63,1
DA:65,1
DA:66,1
DA:67,1
DA:68,1
DA:69,1
DA:70,1
DA:71,1
DA:72,1
DA:73,1
DA:75,1
DA:77,1
DA:78,1
DA:79,1
DA:82,1
DA:83,1
DA:84,1
DA:85,1
DA:86,1
DA:88,1
DA:90,1
DA:91,1
DA:92,1
DA:93,1
DA:94,1
DA:95,1
DA:96,1
DA:97,1
DA:98,1
DA:99,1
DA:101,1
DA:102,1
DA:105,1
DA:106,1
DA:107,1
DA:108,1
DA:109,1
DA:111,1
DA:113,1
DA:114,1
DA:115,1
DA:116,1
DA:117,1
DA:118,1
DA:119,1
DA:120,1
DA:121,1
DA:122,1
DA:124,1
DA:125,1
DA:128,1
DA:129,1
DA:130,1
DA:131,1
DA:132,1
DA:134,1
DA:136,1
DA:137,1
DA:138,1
DA:139,1
DA:140,1
DA:141,1
DA:142,1
DA:143,1
DA:144,1
DA:146,1
DA:147,1
DA:150,1
DA:151,1
DA:152,1
DA:154,1
DA:157,1
DA:158,1
BRF:0
BRH:0
LF:120
LH:120
end_of_record